; Function Attrs: nounwind sspstrong uwtable
define internal range(i64 0, 21) i64 @strscan_bol_p(i64 noundef %0) #0 {
  %2 = tail call ptr @rb_check_typeddata(i64 noundef %0, ptr noundef nonnull @strscanner_type) #12
  %3 = getelementptr inbounds nuw i8, ptr %2, i64 8
  %4 = load i64, ptr %3, align 8, !tbaa !23
  %5 = icmp eq i64 %4, 4
  br i1 %5, label %6, label %RSTRING_PTR.exit12

6:                                                ; preds = %1
  %7 = load i64, ptr @rb_eArgError, align 8, !tbaa !10
  tail call void (i64, ptr, ...) @rb_raise(i64 noundef %7, ptr noundef nonnull @.str.66) #14
  unreachable

RSTRING_PTR.exit12:                               ; preds = %1
  %8 = inttoptr i64 %4 to ptr
  %9 = load i64, ptr %8, align 8, !tbaa !34, !noalias !70
  %10 = and i64 %9, 8192
  %.not.i.i = icmp eq i64 %10, 0
  %11 = getelementptr inbounds nuw i8, ptr %8, i64 24
  %12 = getelementptr inbounds nuw i8, ptr %2, i64 24
  %13 = load i64, ptr %12, align 8, !tbaa !29
  %14 = getelementptr inbounds nuw i8, ptr %8, i64 16
  %15 = load i64, ptr %14, align 8, !tbaa !32
  %16 = icmp sgt i64 %13, %15
  br i1 %16, label %26, label %17

17:                                               ; preds = %RSTRING_PTR.exit12
  %18 = icmp eq i64 %13, 0
  br i1 %18, label %26, label %19

19:                                               ; preds = %17
  br i1 %.not.i.i, label %RSTRING_PTR.exit16, label %20

20:                                               ; preds = %19
  %.sroa.2.0.copyload.i14 = load ptr, ptr %11, align 8
  br label %RSTRING_PTR.exit16

RSTRING_PTR.exit16:                               ; preds = %19, %20
  %.sroa.2.0.i15 = phi ptr [ %.sroa.2.0.copyload.i14, %20 ], [ %11, %19 ]
  %21 = getelementptr inbounds i8, ptr %.sroa.2.0.i15, i64 %13
  %22 = getelementptr inbounds i8, ptr %21, i64 -1
  %23 = load i8, ptr %22, align 1, !tbaa !54
  %24 = icmp eq i8 %23, 10
  %25 = select i1 %24, i64 20, i64 0
  br label %26

26:                                               ; preds = %17, %RSTRING_PTR.exit12, %RSTRING_PTR.exit16
  %.0 = phi i64 [ %25, %RSTRING_PTR.exit16 ], [ 4, %RSTRING_PTR.exit12 ], [ 20, %17 ]
  ret i64 %.0
}